; Function Attrs: nounwind uwtable
define hidden noundef zeroext i1 @SDL_CalculateSurfaceSize(i32 noundef %0, i32 noundef %1, i32 noundef %2, ptr noundef writeonly captures(address_is_null) %3, ptr noundef writeonly captures(address_is_null) %4, i1 noundef zeroext %5) local_unnamed_addr #2 {
  %7 = alloca i64, align 8
  %8 = alloca i64, align 8
  call void @llvm.lifetime.start.p0(i64 8, ptr nonnull %7) #10
  store i64 0, ptr %7, align 8
  call void @llvm.lifetime.start.p0(i64 8, ptr nonnull %8) #10
  store i64 0, ptr %8, align 8
  %.not = icmp eq ptr %3, null
  br i1 %.not, label %10, label %9

9:                                                ; preds = %6
  store i64 0, ptr %3, align 8
  br label %10

10:                                               ; preds = %9, %6
  %.not23 = icmp eq ptr %4, null
  br i1 %.not23, label %12, label %11

11:                                               ; preds = %10
  store i64 0, ptr %4, align 8
  br label %12

12:                                               ; preds = %11, %10
  %.not24 = icmp eq i32 %0, 0
  br i1 %.not24, label %.split, label %13

.split:                                           ; preds = %12
  store i64 0, ptr %7, align 8
  store i64 0, ptr %8, align 8
  br label %SDL_CalculateRGBSize.exit26.thread

13:                                               ; preds = %12
  %.mask = and i32 %0, -268435456
  %.not25 = icmp eq i32 %.mask, 268435456
  br i1 %.not25, label %.split18, label %48

.split18:                                         ; preds = %13
  %14 = sext i32 %1 to i64
  %15 = sext i32 %2 to i64
  %16 = and i32 %0, 63488
  %.not28 = icmp eq i32 %16, 0
  br i1 %.not28, label %.critedge.i, label %17

17:                                               ; preds = %.split18
  %18 = and i32 %0, 255
  %19 = zext nneg i32 %18 to i64
  %20 = tail call { i64, i1 } @llvm.umul.with.overflow.i64(i64 range(i64 -2147483648, 2147483648) %14, i64 %19)
  %21 = extractvalue { i64, i1 } %20, 1
  %22 = extractvalue { i64, i1 } %20, 0
  store i64 %22, ptr %7, align 8
  br i1 %21, label %SDL_CalculateRGBSize.exit26, label %35

.critedge.i:                                      ; preds = %.split18
  %23 = lshr i32 %0, 8
  %24 = and i32 %23, 7
  %25 = zext nneg i32 %24 to i64
  %26 = tail call { i64, i1 } @llvm.umul.with.overflow.i64(i64 range(i64 -2147483648, 2147483648) %14, i64 %25)
  %27 = extractvalue { i64, i1 } %26, 1
  %28 = extractvalue { i64, i1 } %26, 0
  store i64 %28, ptr %7, align 8
  br i1 %27, label %SDL_CalculateRGBSize.exit26, label %29

29:                                               ; preds = %.critedge.i
  %30 = tail call { i64, i1 } @llvm.uadd.with.overflow.i64(i64 %28, i64 7)
  %31 = extractvalue { i64, i1 } %30, 1
  %32 = extractvalue { i64, i1 } %30, 0
  store i64 %32, ptr %7, align 8
  br i1 %31, label %SDL_CalculateRGBSize.exit26, label %33

33:                                               ; preds = %29
  %34 = lshr i64 %32, 3
  store i64 %34, ptr %7, align 8
  br label %35

35:                                               ; preds = %33, %17
  %36 = phi i64 [ %22, %17 ], [ %34, %33 ]
  br i1 %5, label %43, label %37

37:                                               ; preds = %35
  %38 = tail call { i64, i1 } @llvm.uadd.with.overflow.i64(i64 %36, i64 3)
  %39 = extractvalue { i64, i1 } %38, 1
  %40 = extractvalue { i64, i1 } %38, 0
  store i64 %40, ptr %7, align 8
  br i1 %39, label %SDL_CalculateRGBSize.exit26, label %41

41:                                               ; preds = %37
  %42 = and i64 %40, -4
  store i64 %42, ptr %7, align 8
  br label %43

43:                                               ; preds = %41, %35
  %44 = phi i64 [ %42, %41 ], [ %36, %35 ]
  %45 = tail call { i64, i1 } @llvm.umul.with.overflow.i64(i64 range(i64 -2147483648, 2147483648) %15, i64 %44)
  %46 = extractvalue { i64, i1 } %45, 1
  %47 = extractvalue { i64, i1 } %45, 0
  store i64 %47, ptr %8, align 8
  br i1 %46, label %SDL_CalculateRGBSize.exit26, label %SDL_CalculateRGBSize.exit26.thread

48:                                               ; preds = %13
  %49 = icmp eq i32 %0, 1196444237
  br i1 %49, label %58, label %50

50:                                               ; preds = %48
  %51 = call zeroext i1 @SDL_CalculateYUVSize(i32 noundef %0, i32 noundef %1, i32 noundef %2, ptr noundef nonnull %8, ptr noundef nonnull %7) #10
  br i1 %51, label %SDL_CalculateRGBSize.exit26.thread, label %58

SDL_CalculateRGBSize.exit26:                      ; preds = %17, %.critedge.i, %29, %37, %43
  %.str.30.sink.i = phi ptr [ @.str.28, %17 ], [ @.str.28, %.critedge.i ], [ @.str.29, %29 ], [ @.str.29, %37 ], [ @.str.30, %43 ]
  %52 = tail call zeroext i1 (ptr, ...) @SDL_SetError_REAL(ptr noundef nonnull %.str.30.sink.i) #10
  br i1 %52, label %SDL_CalculateRGBSize.exit26.thread, label %58

SDL_CalculateRGBSize.exit26.thread:               ; preds = %43, %.split, %SDL_CalculateRGBSize.exit26, %50
  br i1 %.not, label %55, label %53

53:                                               ; preds = %SDL_CalculateRGBSize.exit26.thread
  %54 = load i64, ptr %8, align 8
  store i64 %54, ptr %3, align 8
  br label %55

55:                                               ; preds = %53, %SDL_CalculateRGBSize.exit26.thread
  br i1 %.not23, label %58, label %56

56:                                               ; preds = %55
  %57 = load i64, ptr %7, align 8
  store i64 %57, ptr %4, align 8
  br label %58

58:                                               ; preds = %55, %56, %SDL_CalculateRGBSize.exit26, %50, %48
  %.0 = phi i1 [ true, %48 ], [ false, %50 ], [ false, %SDL_CalculateRGBSize.exit26 ], [ true, %56 ], [ true, %55 ]
  call void @llvm.lifetime.end.p0(i64 8, ptr nonnull %8) #10
  call void @llvm.lifetime.end.p0(i64 8, ptr nonnull %7) #10
  ret i1 %.0
}